target datalayout = "e-m:e-p270:32:32-p271:32:32-p272:64:64-i64:64-i128:128-f80:128-n8:16:32:64-S128"
target triple = "x86_64-pc-linux-gnu"

%struct.RString = type { %struct.RBasic, i64, %union.anon }
%struct.RBasic = type { i64, i64 }
%union.anon = type { %struct.anon }
%struct.anon = type { ptr, %union.anon.0 }
%union.anon.0 = type { i64 }
%struct.anon.1 = type { [1 x i8] }

@rb_cString = dso_local global i64 0, align 8

; Function Attrs: inlinehint nounwind sspstrong willreturn memory(read) uwtable
define internal i64 @RB_FL_TEST_RAW(i64 noundef %0, i64 noundef %1) #1 {
  %3 = alloca i64, align 8
  %4 = alloca i64, align 8
  store i64 %0, ptr %3, align 8, !tbaa !7
  store i64 %1, ptr %4, align 8, !tbaa !7
  %5 = load i64, ptr %3, align 8, !tbaa !7
  %6 = inttoptr i64 %5 to ptr
  %7 = getelementptr inbounds nuw %struct.RBasic, ptr %6, i32 0, i32 0
  %8 = load i64, ptr %7, align 8, !tbaa !23
  %9 = load i64, ptr %4, align 8, !tbaa !7
  %10 = and i64 %8, %9
  ret i64 %10
}

; Function Attrs: inlinehint nounwind sspstrong uwtable
define internal i32 @RB_ENCODING_GET_INLINED(i64 noundef %0) #3 {
  %2 = alloca i64, align 8
  %3 = alloca i64, align 8
  store i64 %0, ptr %2, align 8, !tbaa !7
  call void @llvm.lifetime.start.p0(i64 8, ptr %3) #29
  %4 = load i64, ptr %2, align 8, !tbaa !7
  %5 = call i64 @RB_FL_TEST_RAW(i64 noundef %4, i64 noundef 532676608) #28
  %6 = lshr i64 %5, 22
  store i64 %6, ptr %3, align 8, !tbaa !7
  %7 = load i64, ptr %3, align 8, !tbaa !7
  %8 = trunc i64 %7 to i32
  call void @llvm.lifetime.end.p0(i64 8, ptr %3) #29
  ret i32 %8
}

; Function Attrs: inlinehint nounwind sspstrong willreturn memory(read) uwtable
define internal zeroext i1 @RB_FL_ANY_RAW(i64 noundef %0, i64 noundef %1) #1 {
  %3 = alloca i64, align 8
  %4 = alloca i64, align 8
  store i64 %0, ptr %3, align 8, !tbaa !7
  store i64 %1, ptr %4, align 8, !tbaa !7
  %5 = load i64, ptr %3, align 8, !tbaa !7
  %6 = load i64, ptr %4, align 8, !tbaa !7
  %7 = call i64 @RB_FL_TEST_RAW(i64 noundef %5, i64 noundef %6) #28
  %8 = icmp ne i64 %7, 0
  ret i1 %8
}

; Function Attrs: alwaysinline nounwind
define internal ptr @memcpy.inline(ptr noalias nonnull %0, ptr noalias nonnull %1, i64 %2) #7 {
  %4 = alloca ptr, align 8
  %5 = alloca ptr, align 8
  %6 = alloca i64, align 8
  store ptr %0, ptr %4, align 8, !tbaa !25
  store ptr %1, ptr %5, align 8, !tbaa !25
  store i64 %2, ptr %6, align 8, !tbaa !7
  %7 = load ptr, ptr %4, align 8, !tbaa !25
  %8 = load ptr, ptr %5, align 8, !tbaa !25
  %9 = load i64, ptr %6, align 8, !tbaa !7
  %10 = load ptr, ptr %4, align 8, !tbaa !25
  %11 = call i64 @llvm.objectsize.i64.p0(ptr %10, i1 false, i1 true, i1 false)
  %12 = call ptr @__memcpy_chk(ptr noundef %7, ptr noundef %8, i64 noundef %9, i64 noundef %11) #29
  ret ptr %12
}

; Function Attrs: inlinehint nounwind sspstrong uwtable
define internal i32 @RB_ENCODING_GET(i64 noundef %0) #3 {
  %2 = alloca i32, align 4
  %3 = alloca i64, align 8
  %4 = alloca i32, align 4
  %5 = alloca i32, align 4
  store i64 %0, ptr %3, align 8, !tbaa !7
  call void @llvm.lifetime.start.p0(i64 4, ptr %4) #29
  %6 = load i64, ptr %3, align 8, !tbaa !7
  %7 = call i32 @RB_ENCODING_GET_INLINED(i64 noundef %6)
  store i32 %7, ptr %4, align 4, !tbaa !22
  %8 = load i32, ptr %4, align 4, !tbaa !22
  %9 = icmp eq i32 %8, 127
  br i1 %9, label %10, label %13

10:                                               ; preds = %1
  %11 = load i64, ptr %3, align 8, !tbaa !7
  %12 = call i32 @rb_enc_get_index(i64 noundef %11)
  store i32 %12, ptr %2, align 4
  store i32 1, ptr %5, align 4
  br label %15

13:                                               ; preds = %1
  %14 = load i32, ptr %4, align 4, !tbaa !22
  store i32 %14, ptr %2, align 4
  store i32 1, ptr %5, align 4
  br label %15

15:                                               ; preds = %13, %10
  call void @llvm.lifetime.end.p0(i64 4, ptr %4) #29
  %16 = load i32, ptr %2, align 4
  ret i32 %16
}

; Function Attrs: inlinehint nounwind sspstrong willreturn memory(read, argmem: readwrite) uwtable
define internal void @rbimpl_rstring_getmem(ptr dead_on_unwind noalias writable sret(%struct.RString) align 8 %0, i64 noundef %1) #11 {
  %3 = alloca i64, align 8
  store i64 %1, ptr %3, align 8, !tbaa !7
  %4 = load i64, ptr %3, align 8, !tbaa !7
  %5 = call zeroext i1 @RB_FL_ANY_RAW(i64 noundef %4, i64 noundef 8192) #28
  br i1 %5, label %6, label %9

6:                                                ; preds = %2
  %7 = load i64, ptr %3, align 8, !tbaa !7
  %8 = inttoptr i64 %7 to ptr
  call void @llvm.memcpy.p0.p0.i64(ptr align 8 %0, ptr align 8 %8, i64 40, i1 false), !tbaa.struct !58
  br label %20

9:                                                ; preds = %2
  %10 = load i64, ptr %3, align 8, !tbaa !7
  %11 = call i64 @RSTRING_LEN(i64 noundef %10) #28
  %12 = getelementptr inbounds nuw %struct.RString, ptr %0, i32 0, i32 1
  store i64 %11, ptr %12, align 8, !tbaa !11
  %13 = load i64, ptr %3, align 8, !tbaa !7
  %14 = inttoptr i64 %13 to ptr
  %15 = getelementptr inbounds nuw %struct.RString, ptr %14, i32 0, i32 2
  %16 = getelementptr inbounds nuw %struct.anon.1, ptr %15, i32 0, i32 0
  %17 = getelementptr inbounds [1 x i8], ptr %16, i64 0, i64 0
  %18 = getelementptr inbounds nuw %struct.RString, ptr %0, i32 0, i32 2
  %19 = getelementptr inbounds nuw %struct.anon, ptr %18, i32 0, i32 0
  store ptr %17, ptr %19, align 8, !tbaa !14
  br label %20

20:                                               ; preds = %9, %6
  ret void
}

; Function Attrs: inlinehint nounwind sspstrong memory(argmem: readwrite, inaccessiblemem: readwrite) uwtable
define internal nonnull ptr @ruby_nonempty_memcpy(ptr noundef nonnull %0, ptr noundef %1, i64 noundef %2) #5 {
  %4 = alloca ptr, align 8
  %5 = alloca ptr, align 8
  %6 = alloca ptr, align 8
  %7 = alloca i64, align 8
  store ptr %0, ptr %5, align 8, !tbaa !25
  store ptr %1, ptr %6, align 8, !tbaa !25
  store i64 %2, ptr %7, align 8, !tbaa !7
  %8 = load i64, ptr %7, align 8, !tbaa !7
  %9 = icmp ne i64 %8, 0
  br i1 %9, label %10, label %15

10:                                               ; preds = %3
  %11 = load ptr, ptr %5, align 8, !tbaa !25
  %12 = load ptr, ptr %6, align 8, !tbaa !25
  %13 = load i64, ptr %7, align 8, !tbaa !7
  %14 = call ptr @memcpy.inline(ptr noundef %11, ptr noundef %12, i64 noundef %13) #29
  store ptr %14, ptr %4, align 8
  br label %17

15:                                               ; preds = %3
  %16 = load ptr, ptr %5, align 8, !tbaa !25
  store ptr %16, ptr %4, align 8
  br label %17

17:                                               ; preds = %15, %10
  %18 = load ptr, ptr %4, align 8
  ret ptr %18
}

; Function Attrs: nounwind sspstrong uwtable
define dso_local i64 @rb_enc_str_new(ptr noundef %0, i64 noundef %1, ptr noundef %2) #0 {
  %4 = alloca ptr, align 8
  %5 = alloca i64, align 8
  %6 = alloca ptr, align 8
  store ptr %0, ptr %4, align 8, !tbaa !24
  store i64 %1, ptr %5, align 8, !tbaa !7
  store ptr %2, ptr %6, align 8, !tbaa !15
  %7 = load i64, ptr @rb_cString, align 8, !tbaa !7
  %8 = load ptr, ptr %4, align 8, !tbaa !24
  %9 = load i64, ptr %5, align 8, !tbaa !7
  %10 = load ptr, ptr %6, align 8, !tbaa !15
  %11 = call i64 @str_enc_new(i64 noundef %7, ptr noundef %8, i64 noundef %9, ptr noundef %10)
  ret i64 %11
}

; Function Attrs: nounwind sspstrong uwtable
define internal ptr @get_encoding(i64 noundef %0) #0 {
  %2 = alloca i64, align 8
  store i64 %0, ptr %2, align 8, !tbaa !7
  %3 = load i64, ptr %2, align 8, !tbaa !7
  %4 = call i32 @RB_ENCODING_GET(i64 noundef %3)
  %5 = call ptr @rb_enc_from_index(i32 noundef %4)
  ret ptr %5
}

; Function Attrs: alwaysinline nounwind
define internal ptr @memmove.inline(ptr nonnull %0, ptr nonnull %1, i64 %2) #7 {
  %4 = alloca ptr, align 8
  %5 = alloca ptr, align 8
  %6 = alloca i64, align 8
  store ptr %0, ptr %4, align 8, !tbaa !25
  store ptr %1, ptr %5, align 8, !tbaa !25
  store i64 %2, ptr %6, align 8, !tbaa !7
  %7 = load ptr, ptr %4, align 8, !tbaa !25
  %8 = load ptr, ptr %5, align 8, !tbaa !25
  %9 = load i64, ptr %6, align 8, !tbaa !7
  %10 = load ptr, ptr %4, align 8, !tbaa !25
  %11 = call i64 @llvm.objectsize.i64.p0(ptr %10, i1 false, i1 true, i1 false)
  %12 = call ptr @__memmove_chk(ptr noundef %7, ptr noundef %8, i64 noundef %9, i64 noundef %11) #29
  ret ptr %12
}

; Function Attrs: inlinehint nounwind sspstrong uwtable
define internal ptr @RSTRING_PTR(i64 noundef %0) #3 {
  %2 = alloca i64, align 8
  %3 = alloca ptr, align 8
  %4 = alloca %struct.RString, align 8
  store i64 %0, ptr %2, align 8, !tbaa !7
  call void @llvm.lifetime.start.p0(i64 8, ptr %3) #29
  %5 = load i64, ptr %2, align 8, !tbaa !7
  call void @rbimpl_rstring_getmem(ptr dead_on_unwind writable sret(%struct.RString) align 8 %4, i64 noundef %5) #31
  %6 = getelementptr inbounds nuw %struct.RString, ptr %4, i32 0, i32 2
  %7 = getelementptr inbounds nuw %struct.anon, ptr %6, i32 0, i32 0
  %8 = load ptr, ptr %7, align 8, !tbaa !14
  store ptr %8, ptr %3, align 8, !tbaa !24
  %9 = load ptr, ptr %3, align 8, !tbaa !24
  call void @llvm.lifetime.end.p0(i64 8, ptr %3) #29
  ret ptr %9
}

; Function Attrs: inlinehint nounwind sspstrong willreturn memory(read) uwtable
define internal i64 @RSTRING_LEN(i64 noundef %0) #1 {
  %2 = alloca i64, align 8
  store i64 %0, ptr %2, align 8, !tbaa !7
  %3 = load i64, ptr %2, align 8, !tbaa !7
  %4 = inttoptr i64 %3 to ptr
  %5 = getelementptr inbounds nuw %struct.RString, ptr %4, i32 0, i32 1
  %6 = load i64, ptr %5, align 8, !tbaa !11
  ret i64 %6
}

; Function Attrs: nounwind sspstrong uwtable
define internal i64 @sym_inspect(i64 noundef %0) #0 {
  %2 = alloca i64, align 8
  %3 = alloca i64, align 8
  %4 = alloca ptr, align 8
  %5 = alloca i64, align 8
  %6 = alloca ptr, align 8
  %7 = alloca ptr, align 8
  %8 = alloca i64, align 8
  %9 = alloca ptr, align 8
  %10 = alloca ptr, align 8
  store i64 %0, ptr %2, align 8, !tbaa !7
  call void @llvm.lifetime.start.p0(i64 8, ptr %3) #29
  %11 = load i64, ptr %2, align 8, !tbaa !7
  %12 = call i64 @rb_sym2str(i64 noundef %11)
  store i64 %12, ptr %3, align 8, !tbaa !7
  call void @llvm.lifetime.start.p0(i64 8, ptr %4) #29
  call void @llvm.lifetime.start.p0(i64 8, ptr %5) #29
  call void @llvm.lifetime.start.p0(i64 8, ptr %6) #29
  %13 = load i64, ptr %3, align 8, !tbaa !7
  %14 = call i32 @rb_str_symname_p(i64 noundef %13)
  %15 = icmp ne i32 %14, 0
  br i1 %15, label %32, label %16

16:                                               ; preds = %1
  %17 = load i64, ptr %3, align 8, !tbaa !7
  %18 = call i64 @rb_str_inspect(i64 noundef %17)
  store i64 %18, ptr %3, align 8, !tbaa !7
  %19 = load i64, ptr %3, align 8, !tbaa !7
  %20 = call i64 @RSTRING_LEN(i64 noundef %19) #28
  store i64 %20, ptr %5, align 8, !tbaa !7
  %21 = load i64, ptr %3, align 8, !tbaa !7
  %22 = load i64, ptr %5, align 8, !tbaa !7
  %23 = add i64 %22, 1
  %24 = call i64 @rb_str_resize(i64 noundef %21, i64 noundef %23)
  %25 = load i64, ptr %3, align 8, !tbaa !7
  %26 = call ptr @RSTRING_PTR(i64 noundef %25)
  store ptr %26, ptr %6, align 8, !tbaa !24
  %27 = load ptr, ptr %6, align 8, !tbaa !24
  %28 = getelementptr i8, ptr %27, i64 1
  %29 = load ptr, ptr %6, align 8, !tbaa !24
  %30 = load i64, ptr %5, align 8, !tbaa !7
  %31 = call ptr @memmove.inline(ptr noundef %28, ptr noundef %29, i64 noundef %30) #29
  br label %54

32:                                               ; preds = %1
  call void @llvm.lifetime.start.p0(i64 8, ptr %7) #29
  %33 = load i64, ptr %3, align 8, !tbaa !7
  %34 = call ptr @get_encoding(i64 noundef %33)
  store ptr %34, ptr %7, align 8, !tbaa !15
  call void @llvm.lifetime.start.p0(i64 8, ptr %8) #29
  %35 = load i64, ptr %3, align 8, !tbaa !7
  store i64 %35, ptr %8, align 8, !tbaa !7
  %36 = load i64, ptr %8, align 8, !tbaa !7
  %37 = call i64 @RSTRING_LEN(i64 noundef %36) #28
  store i64 %37, ptr %5, align 8, !tbaa !7
  %38 = load i64, ptr %5, align 8, !tbaa !7
  %39 = add i64 %38, 1
  %40 = load ptr, ptr %7, align 8, !tbaa !15
  %41 = call i64 @rb_enc_str_new(ptr noundef null, i64 noundef %39, ptr noundef %40)
  store i64 %41, ptr %3, align 8, !tbaa !7
  %42 = load i64, ptr %8, align 8, !tbaa !7
  %43 = call ptr @RSTRING_PTR(i64 noundef %42)
  store ptr %43, ptr %4, align 8, !tbaa !24
  %44 = load i64, ptr %3, align 8, !tbaa !7
  %45 = call ptr @RSTRING_PTR(i64 noundef %44)
  store ptr %45, ptr %6, align 8, !tbaa !24
  %46 = load ptr, ptr %6, align 8, !tbaa !24
  %47 = getelementptr i8, ptr %46, i64 1
  %48 = load ptr, ptr %4, align 8, !tbaa !24
  %49 = load i64, ptr %5, align 8, !tbaa !7
  %50 = call nonnull ptr @ruby_nonempty_memcpy(ptr noundef %47, ptr noundef %48, i64 noundef %49) #30
  call void @llvm.lifetime.start.p0(i64 8, ptr %9) #29
  store ptr %8, ptr %9, align 8, !tbaa !47
  call void asm sideeffect "", "*m,~{dirflag},~{fpsr},~{flags}"(ptr elementtype(ptr) %9) #29, !srcloc !176
  %51 = load ptr, ptr %9, align 8, !tbaa !47
  store ptr %51, ptr %10, align 8, !tbaa !47
  call void @llvm.lifetime.end.p0(i64 8, ptr %9) #29
  %52 = load ptr, ptr %10, align 8, !tbaa !47
  %53 = load volatile i64, ptr %52, align 8, !tbaa !7
  call void @llvm.lifetime.end.p0(i64 8, ptr %8) #29
  call void @llvm.lifetime.end.p0(i64 8, ptr %7) #29
  br label %54

54:                                               ; preds = %32, %16
  %55 = load ptr, ptr %6, align 8, !tbaa !24
  %56 = getelementptr i8, ptr %55, i64 0
  store i8 58, ptr %56, align 1, !tbaa !14
  %57 = load i64, ptr %3, align 8, !tbaa !7
  call void @llvm.lifetime.end.p0(i64 8, ptr %6) #29
  call void @llvm.lifetime.end.p0(i64 8, ptr %5) #29
  call void @llvm.lifetime.end.p0(i64 8, ptr %4) #29
  call void @llvm.lifetime.end.p0(i64 8, ptr %3) #29
  ret i64 %57
}