; Function Attrs: nounwind sspstrong uwtable
define internal noundef i64 @sym_inspect(i64 noundef %0) #1 {
  %2 = alloca i64, align 8
  %3 = alloca ptr, align 8
  %4 = tail call i64 @rb_sym2str(i64 noundef %0) #29
  %5 = tail call i32 @rb_str_symname_p(i64 noundef %4)
  %.not = icmp eq i32 %5, 0
  br i1 %.not, label %6, label %18

6:                                                ; preds = %1
  %7 = tail call i64 @rb_str_inspect(i64 noundef %4)
  %8 = inttoptr i64 %7 to ptr
  %9 = getelementptr inbounds nuw i8, ptr %8, i64 16
  %10 = load i64, ptr %9, align 8, !tbaa !12
  %11 = add i64 %10, 1
  %12 = tail call i64 @rb_str_resize(i64 noundef %7, i64 noundef %11)
  %13 = load i64, ptr %8, align 8, !tbaa !7, !noalias !786
  %14 = and i64 %13, 8192
  %.not.i.i = icmp eq i64 %14, 0
  %15 = getelementptr inbounds nuw i8, ptr %8, i64 24
  br i1 %.not.i.i, label %RSTRING_PTR.exit, label %16

16:                                               ; preds = %6
  %.sroa.2.0.copyload.i = load ptr, ptr %15, align 8
  br label %RSTRING_PTR.exit

RSTRING_PTR.exit:                                 ; preds = %6, %16
  %.sroa.2.0.i = phi ptr [ %.sroa.2.0.copyload.i, %16 ], [ %15, %6 ]
  %17 = getelementptr i8, ptr %.sroa.2.0.i, i64 1
  tail call void @llvm.memmove.p0.p0.i64(ptr noundef nonnull align 1 %17, ptr noundef nonnull align 1 %.sroa.2.0.i, i64 noundef %10, i1 noundef false) #29
  br label %46

18:                                               ; preds = %1
  %19 = inttoptr i64 %4 to ptr
  %20 = load i64, ptr %19, align 8, !tbaa !7
  %21 = trunc i64 %20 to i32
  %22 = lshr i32 %21, 22
  %23 = and i32 %22, 127
  %24 = icmp eq i32 %23, 127
  br i1 %24, label %25, label %get_encoding.exit

25:                                               ; preds = %18
  %26 = tail call i32 @rb_enc_get_index(i64 noundef %4) #29
  br label %get_encoding.exit

get_encoding.exit:                                ; preds = %18, %25
  %.0.i.i = phi i32 [ %26, %25 ], [ %23, %18 ]
  %27 = tail call ptr @rb_enc_from_index(i32 noundef %.0.i.i) #29
  call void @llvm.lifetime.start.p0(i64 8, ptr nonnull %2) #29
  store i64 %4, ptr %2, align 8, !tbaa !26
  %28 = getelementptr inbounds nuw i8, ptr %19, i64 16
  %29 = load i64, ptr %28, align 8, !tbaa !12
  %30 = add i64 %29, 1
  %31 = load i64, ptr @rb_cString, align 8, !tbaa !26
  %32 = tail call fastcc noundef i64 @str_enc_new(i64 noundef %31, ptr noundef null, i64 noundef %30, ptr noundef %27)
  %33 = load i64, ptr %19, align 8, !tbaa !7, !noalias !789
  %34 = and i64 %33, 8192
  %.not.i.i21 = icmp eq i64 %34, 0
  %35 = getelementptr inbounds nuw i8, ptr %19, i64 24
  br i1 %.not.i.i21, label %RSTRING_PTR.exit24, label %36

36:                                               ; preds = %get_encoding.exit
  %.sroa.2.0.copyload.i22 = load ptr, ptr %35, align 8
  br label %RSTRING_PTR.exit24

RSTRING_PTR.exit24:                               ; preds = %get_encoding.exit, %36
  %.sroa.2.0.i23 = phi ptr [ %.sroa.2.0.copyload.i22, %36 ], [ %35, %get_encoding.exit ]
  %37 = inttoptr i64 %32 to ptr
  %38 = load i64, ptr %37, align 8, !tbaa !7, !noalias !792
  %39 = and i64 %38, 8192
  %.not.i.i25 = icmp eq i64 %39, 0
  %40 = getelementptr inbounds nuw i8, ptr %37, i64 24
  br i1 %.not.i.i25, label %RSTRING_PTR.exit28, label %41

41:                                               ; preds = %RSTRING_PTR.exit24
  %.sroa.2.0.copyload.i26 = load ptr, ptr %40, align 8
  br label %RSTRING_PTR.exit28

RSTRING_PTR.exit28:                               ; preds = %RSTRING_PTR.exit24, %41
  %.sroa.2.0.i27 = phi ptr [ %.sroa.2.0.copyload.i26, %41 ], [ %40, %RSTRING_PTR.exit24 ]
  %.not.i = icmp eq i64 %29, 0
  br i1 %.not.i, label %ruby_nonempty_memcpy.exit, label %42

42:                                               ; preds = %RSTRING_PTR.exit28
  %43 = getelementptr i8, ptr %.sroa.2.0.i27, i64 1
  tail call void @llvm.memcpy.p0.p0.i64(ptr noundef nonnull align 1 %43, ptr noundef nonnull readonly align 1 %.sroa.2.0.i23, i64 noundef range(i64 1, 0) %29, i1 noundef false) #29
  br label %ruby_nonempty_memcpy.exit

ruby_nonempty_memcpy.exit:                        ; preds = %RSTRING_PTR.exit28, %42
  call void @llvm.lifetime.start.p0(i64 8, ptr nonnull %3) #29
  store ptr %2, ptr %3, align 8, !tbaa !91
  call void asm sideeffect "", "*m,~{dirflag},~{fpsr},~{flags}"(ptr nonnull elementtype(ptr) %3) #29, !srcloc !795
  %44 = load ptr, ptr %3, align 8, !tbaa !91
  call void @llvm.lifetime.end.p0(i64 8, ptr nonnull %3) #29
  %45 = load volatile i64, ptr %44, align 8, !tbaa !26
  call void @llvm.lifetime.end.p0(i64 8, ptr nonnull %2) #29
  br label %46

46:                                               ; preds = %ruby_nonempty_memcpy.exit, %RSTRING_PTR.exit
  %.020 = phi ptr [ %.sroa.2.0.i27, %ruby_nonempty_memcpy.exit ], [ %.sroa.2.0.i, %RSTRING_PTR.exit ]
  %.0 = phi i64 [ %32, %ruby_nonempty_memcpy.exit ], [ %7, %RSTRING_PTR.exit ]
  store i8 58, ptr %.020, align 1, !tbaa !19
  ret i64 %.0
}